; Function Attrs: mustprogress nounwind uwtable
define internal void @_ZN12_GLOBAL__N_116GOFFObjectWriterD2Ev(ptr noundef nonnull align 8 dereferenceable(264) %0) unnamed_addr #0 align 2 {
  store ptr getelementptr inbounds inrange(-16, 56) (i8, ptr @_ZTVN12_GLOBAL__N_116GOFFObjectWriterE, i64 16), ptr %0, align 8
  %2 = getelementptr inbounds nuw i8, ptr %0, i64 112
  store ptr getelementptr inbounds inrange(-16, 104) (i8, ptr @_ZTVN12_GLOBAL__N_111GOFFOstreamE, i64 16), ptr %2, align 8
  %3 = getelementptr inbounds i8, ptr %0, i64 168
  %4 = load i64, ptr %3, align 8
  %5 = getelementptr inbounds i8, ptr %0, i64 144
  %6 = load ptr, ptr %5, align 8
  %7 = getelementptr inbounds i8, ptr %0, i64 128
  %8 = load ptr, ptr %7, align 8
  %9 = ptrtoint ptr %6 to i64
  %10 = ptrtoint ptr %8 to i64
  %11 = sub i64 %9, %10
  %.not.i.i.i = icmp eq i64 %4, %11
  br i1 %.not.i.i.i, label %16, label %12

12:                                               ; preds = %1
  %13 = sub i64 %4, %11
  %14 = trunc i64 %13 to i32
  %15 = tail call noundef nonnull align 8 dereferenceable(48) ptr @_ZN4llvm11raw_ostream11write_zerosEj(ptr noundef nonnull align 8 dereferenceable(48) %2, i32 noundef %14) #10
  %.pre.i.i.i = load ptr, ptr %5, align 8
  %.pre2.i.i.i = load ptr, ptr %7, align 8
  br label %16

16:                                               ; preds = %12, %1
  %17 = phi ptr [ %.pre2.i.i.i, %12 ], [ %8, %1 ]
  %18 = phi ptr [ %.pre.i.i.i, %12 ], [ %6, %1 ]
  %.not.i.i.i.i = icmp eq ptr %18, %17
  br i1 %.not.i.i.i.i, label %_ZN12_GLOBAL__N_111GOFFOstreamD2Ev.exit, label %19

19:                                               ; preds = %16
  tail call void @_ZN4llvm11raw_ostream14flush_nonemptyEv(ptr noundef nonnull align 8 dereferenceable(48) %2) #10
  br label %_ZN12_GLOBAL__N_111GOFFOstreamD2Ev.exit

_ZN12_GLOBAL__N_111GOFFOstreamD2Ev.exit:          ; preds = %16, %19
  tail call void @_ZN4llvm11raw_ostreamD2Ev(ptr noundef nonnull align 8 dereferenceable(48) %2) #10
  %20 = getelementptr inbounds nuw i8, ptr %0, i64 104
  %21 = load ptr, ptr %20, align 8
  %.not.i = icmp eq ptr %21, null
  br i1 %.not.i, label %_ZNSt10unique_ptrIN4llvm24MCGOFFObjectTargetWriterESt14default_deleteIS1_EED2Ev.exit, label %_ZNKSt14default_deleteIN4llvm24MCGOFFObjectTargetWriterEEclEPS1_.exit.i

_ZNKSt14default_deleteIN4llvm24MCGOFFObjectTargetWriterEEclEPS1_.exit.i: ; preds = %_ZN12_GLOBAL__N_111GOFFOstreamD2Ev.exit
  %22 = load ptr, ptr %21, align 8
  %23 = getelementptr inbounds i8, ptr %22, i64 8
  %24 = load ptr, ptr %23, align 8
  tail call void %24(ptr noundef nonnull align 8 dereferenceable(8) %21) #10
  br label %_ZNSt10unique_ptrIN4llvm24MCGOFFObjectTargetWriterESt14default_deleteIS1_EED2Ev.exit

_ZNSt10unique_ptrIN4llvm24MCGOFFObjectTargetWriterESt14default_deleteIS1_EED2Ev.exit: ; preds = %_ZN12_GLOBAL__N_111GOFFOstreamD2Ev.exit, %_ZNKSt14default_deleteIN4llvm24MCGOFFObjectTargetWriterEEclEPS1_.exit.i
  store ptr null, ptr %20, align 8
  tail call void @_ZN4llvm14MCObjectWriterD2Ev(ptr noundef nonnull align 8 dereferenceable(104) %0) #10
  ret void
}